target datalayout = "e-m:e-p270:32:32-p271:32:32-p272:64:64-i64:64-i128:128-f80:128-n8:16:32:64-S128"
target triple = "x86_64-unknown-linux-gnu"

%struct.redisCommand = type { ptr, ptr, ptr, ptr, i32, ptr, ptr, i32, ptr, i32, ptr, i32, ptr, i32, i64, i64, ptr, i32, ptr, i32, ptr, ptr, i64, i64, i64, i64, i32, ptr, ptr, %struct.keySpec, ptr, ptr, ptr }
%struct.keySpec = type { ptr, i64, i32, %union.anon, i32, %union.anon.2 }
%union.anon = type { %struct.anon.1 }
%struct.anon.1 = type { ptr, i32 }
%union.anon.2 = type { %struct.anon.3 }
%struct.anon.3 = type { i32, i32, i32 }
%struct.sdshdr8 = type { i8, i8, i8, [0 x i8] }
%struct.sdshdr16 = type <{ i16, i16, i8, [0 x i8] }>
%struct.sdshdr32 = type <{ i32, i32, i8, [0 x i8] }>
%struct.sdshdr64 = type <{ i64, i64, i8, [0 x i8] }>
%struct.redisObject = type { i32, i32, ptr }

@.str.9 = private unnamed_addr constant [9 x i8] c"server.c\00", align 1
@.str.165 = private unnamed_addr constant [2 x i8] c"|\00", align 1
@.str.166 = private unnamed_addr constant [9 x i8] c"argc > 0\00", align 1

; Function Attrs: nounwind uwtable
define dso_local ptr @lookupSubcommand(ptr noundef %container, ptr noundef %sub_name) #0 {
entry:
  %container.addr = alloca ptr, align 8
  %sub_name.addr = alloca ptr, align 8
  store ptr %container, ptr %container.addr, align 8
  store ptr %sub_name, ptr %sub_name.addr, align 8
  %0 = load ptr, ptr %container.addr, align 8
  %subcommands_dict = getelementptr inbounds %struct.redisCommand, ptr %0, i32 0, i32 30
  %1 = load ptr, ptr %subcommands_dict, align 8
  %2 = load ptr, ptr %sub_name.addr, align 8
  %call = call ptr @dictFetchValue(ptr noundef %1, ptr noundef %2)
  ret ptr %call
}

; Function Attrs: nounwind uwtable
define dso_local ptr @lookupCommandLogic(ptr noundef %commands, ptr noundef %argv, i32 noundef %argc, i32 noundef %strict) #0 {
entry:
  %retval = alloca ptr, align 8
  %commands.addr = alloca ptr, align 8
  %argv.addr = alloca ptr, align 8
  %argc.addr = alloca i32, align 4
  %strict.addr = alloca i32, align 4
  %base_cmd = alloca ptr, align 8
  %has_subcommands = alloca i32, align 4
  store ptr %commands, ptr %commands.addr, align 8
  store ptr %argv, ptr %argv.addr, align 8
  store i32 %argc, ptr %argc.addr, align 4
  store i32 %strict, ptr %strict.addr, align 4
  %0 = load ptr, ptr %commands.addr, align 8
  %1 = load ptr, ptr %argv.addr, align 8
  %arrayidx = getelementptr inbounds ptr, ptr %1, i64 0
  %2 = load ptr, ptr %arrayidx, align 8
  %ptr = getelementptr inbounds %struct.redisObject, ptr %2, i32 0, i32 2
  %3 = load ptr, ptr %ptr, align 8
  %call = call ptr @dictFetchValue(ptr noundef %0, ptr noundef %3)
  store ptr %call, ptr %base_cmd, align 8
  %4 = load ptr, ptr %base_cmd, align 8
  %tobool = icmp ne ptr %4, null
  br i1 %tobool, label %land.rhs, label %land.end

land.rhs:                                         ; preds = %entry
  %5 = load ptr, ptr %base_cmd, align 8
  %subcommands_dict = getelementptr inbounds %struct.redisCommand, ptr %5, i32 0, i32 30
  %6 = load ptr, ptr %subcommands_dict, align 8
  %tobool1 = icmp ne ptr %6, null
  br label %land.end

land.end:                                         ; preds = %land.rhs, %entry
  %7 = phi i1 [ false, %entry ], [ %tobool1, %land.rhs ]
  %land.ext = zext i1 %7 to i32
  store i32 %land.ext, ptr %has_subcommands, align 4
  %8 = load i32, ptr %argc.addr, align 4
  %cmp = icmp eq i32 %8, 1
  br i1 %cmp, label %if.then, label %lor.lhs.false

lor.lhs.false:                                    ; preds = %land.end
  %9 = load i32, ptr %has_subcommands, align 4
  %tobool2 = icmp ne i32 %9, 0
  br i1 %tobool2, label %if.else, label %if.then

if.then:                                          ; preds = %lor.lhs.false, %land.end
  %10 = load i32, ptr %strict.addr, align 4
  %tobool3 = icmp ne i32 %10, 0
  br i1 %tobool3, label %land.lhs.true, label %if.end

land.lhs.true:                                    ; preds = %if.then
  %11 = load i32, ptr %argc.addr, align 4
  %cmp4 = icmp ne i32 %11, 1
  br i1 %cmp4, label %if.then5, label %if.end

if.then5:                                         ; preds = %land.lhs.true
  store ptr null, ptr %retval, align 8
  br label %return

if.end:                                           ; preds = %land.lhs.true, %if.then
  %12 = load ptr, ptr %base_cmd, align 8
  store ptr %12, ptr %retval, align 8
  br label %return

if.else:                                          ; preds = %lor.lhs.false
  %13 = load i32, ptr %strict.addr, align 4
  %tobool6 = icmp ne i32 %13, 0
  br i1 %tobool6, label %land.lhs.true7, label %if.end10

land.lhs.true7:                                   ; preds = %if.else
  %14 = load i32, ptr %argc.addr, align 4
  %cmp8 = icmp ne i32 %14, 2
  br i1 %cmp8, label %if.then9, label %if.end10

if.then9:                                         ; preds = %land.lhs.true7
  store ptr null, ptr %retval, align 8
  br label %return

if.end10:                                         ; preds = %land.lhs.true7, %if.else
  %15 = load ptr, ptr %base_cmd, align 8
  %16 = load ptr, ptr %argv.addr, align 8
  %arrayidx11 = getelementptr inbounds ptr, ptr %16, i64 1
  %17 = load ptr, ptr %arrayidx11, align 8
  %ptr12 = getelementptr inbounds %struct.redisObject, ptr %17, i32 0, i32 2
  %18 = load ptr, ptr %ptr12, align 8
  %call13 = call ptr @lookupSubcommand(ptr noundef %15, ptr noundef %18)
  store ptr %call13, ptr %retval, align 8
  br label %return

return:                                           ; preds = %if.end10, %if.then9, %if.end, %if.then5
  %19 = load ptr, ptr %retval, align 8
  ret ptr %19
}

; Function Attrs: nounwind uwtable
define internal i64 @sdslen(ptr noundef %s) #0 {
entry:
  %retval = alloca i64, align 8
  %s.addr = alloca ptr, align 8
  %flags = alloca i8, align 1
  store ptr %s, ptr %s.addr, align 8
  %0 = load ptr, ptr %s.addr, align 8
  %arrayidx = getelementptr inbounds i8, ptr %0, i64 -1
  %1 = load i8, ptr %arrayidx, align 1
  store i8 %1, ptr %flags, align 1
  %2 = load i8, ptr %flags, align 1
  %conv = zext i8 %2 to i32
  %and = and i32 %conv, 7
  switch i32 %and, label %sw.epilog [
    i32 0, label %sw.bb
    i32 1, label %sw.bb3
    i32 2, label %sw.bb5
    i32 3, label %sw.bb9
    i32 4, label %sw.bb13
  ]

sw.bb:                                            ; preds = %entry
  %3 = load i8, ptr %flags, align 1
  %conv1 = zext i8 %3 to i32
  %shr = ashr i32 %conv1, 3
  %conv2 = sext i32 %shr to i64
  store i64 %conv2, ptr %retval, align 8
  br label %return

sw.bb3:                                           ; preds = %entry
  %4 = load ptr, ptr %s.addr, align 8
  %add.ptr = getelementptr inbounds i8, ptr %4, i64 -3
  %len = getelementptr inbounds %struct.sdshdr8, ptr %add.ptr, i32 0, i32 0
  %5 = load i8, ptr %len, align 1
  %conv4 = zext i8 %5 to i64
  store i64 %conv4, ptr %retval, align 8
  br label %return

sw.bb5:                                           ; preds = %entry
  %6 = load ptr, ptr %s.addr, align 8
  %add.ptr6 = getelementptr inbounds i8, ptr %6, i64 -5
  %len7 = getelementptr inbounds %struct.sdshdr16, ptr %add.ptr6, i32 0, i32 0
  %7 = load i16, ptr %len7, align 1
  %conv8 = zext i16 %7 to i64
  store i64 %conv8, ptr %retval, align 8
  br label %return

sw.bb9:                                           ; preds = %entry
  %8 = load ptr, ptr %s.addr, align 8
  %add.ptr10 = getelementptr inbounds i8, ptr %8, i64 -9
  %len11 = getelementptr inbounds %struct.sdshdr32, ptr %add.ptr10, i32 0, i32 0
  %9 = load i32, ptr %len11, align 1
  %conv12 = zext i32 %9 to i64
  store i64 %conv12, ptr %retval, align 8
  br label %return

sw.bb13:                                          ; preds = %entry
  %10 = load ptr, ptr %s.addr, align 8
  %add.ptr14 = getelementptr inbounds i8, ptr %10, i64 -17
  %len15 = getelementptr inbounds %struct.sdshdr64, ptr %add.ptr14, i32 0, i32 0
  %11 = load i64, ptr %len15, align 1
  store i64 %11, ptr %retval, align 8
  br label %return

sw.epilog:                                        ; preds = %entry
  store i64 0, ptr %retval, align 8
  br label %return

return:                                           ; preds = %sw.epilog, %sw.bb13, %sw.bb9, %sw.bb5, %sw.bb3, %sw.bb
  %12 = load i64, ptr %retval, align 8
  ret i64 %12
}

; Function Attrs: nounwind uwtable
define dso_local ptr @lookupCommandBySdsLogic(ptr noundef %commands, ptr noundef %s) #0 {
entry:
  %retval = alloca ptr, align 8
  %commands.addr = alloca ptr, align 8
  %s.addr = alloca ptr, align 8
  %argc = alloca i32, align 4
  %j = alloca i32, align 4
  %strings = alloca ptr, align 8
  %saved_stack = alloca ptr, align 8
  %__vla_expr0 = alloca i64, align 8
  %__vla_expr1 = alloca i64, align 8
  %cmd = alloca ptr, align 8
  store ptr %commands, ptr %commands.addr, align 8
  store ptr %s, ptr %s.addr, align 8
  %0 = load ptr, ptr %s.addr, align 8
  %1 = load ptr, ptr %s.addr, align 8
  %call = call i64 @sdslen(ptr noundef %1)
  %call1 = call ptr @sdssplitlen(ptr noundef %0, i64 noundef %call, ptr noundef @.str.165, i32 noundef 1, ptr noundef %argc)
  store ptr %call1, ptr %strings, align 8
  %2 = load ptr, ptr %strings, align 8
  %cmp = icmp eq ptr %2, null
  br i1 %cmp, label %if.then, label %if.end

if.then:                                          ; preds = %entry
  store ptr null, ptr %retval, align 8
  br label %return

if.end:                                           ; preds = %entry
  %3 = load i32, ptr %argc, align 4
  %cmp2 = icmp slt i32 %3, 1
  br i1 %cmp2, label %if.then4, label %lor.lhs.false

lor.lhs.false:                                    ; preds = %if.end
  %4 = load i32, ptr %argc, align 4
  %cmp3 = icmp sgt i32 %4, 2
  br i1 %cmp3, label %if.then4, label %if.end5

if.then4:                                         ; preds = %lor.lhs.false, %if.end
  %5 = load ptr, ptr %strings, align 8
  %6 = load i32, ptr %argc, align 4
  call void @sdsfreesplitres(ptr noundef %5, i32 noundef %6)
  store ptr null, ptr %retval, align 8
  br label %return

if.end5:                                          ; preds = %lor.lhs.false
  %7 = load i32, ptr %argc, align 4
  %cmp6 = icmp sgt i32 %7, 0
  %lnot = xor i1 %cmp6, true
  %lnot7 = xor i1 %lnot, true
  %lnot.ext = zext i1 %lnot7 to i32
  %conv = sext i32 %lnot.ext to i64
  %tobool = icmp ne i64 %conv, 0
  br i1 %tobool, label %cond.true, label %cond.false

cond.true:                                        ; preds = %if.end5
  br label %cond.end

cond.false:                                       ; preds = %if.end5
  call void @_serverAssert(ptr noundef @.str.166, ptr noundef @.str.9, i32 noundef 3253)
  call void @abort() #16
  unreachable

8:                                                ; No predecessors!
  br label %cond.end

cond.end:                                         ; preds = %8, %cond.true
  %9 = load i32, ptr %argc, align 4
  %10 = zext i32 %9 to i64
  %11 = call ptr @llvm.stacksave.p0()
  store ptr %11, ptr %saved_stack, align 8
  %vla = alloca %struct.redisObject, i64 %10, align 16
  store i64 %10, ptr %__vla_expr0, align 8
  %12 = load i32, ptr %argc, align 4
  %13 = zext i32 %12 to i64
  %vla8 = alloca ptr, i64 %13, align 16
  store i64 %13, ptr %__vla_expr1, align 8
  store i32 0, ptr %j, align 4
  br label %for.cond

for.cond:                                         ; preds = %for.inc, %cond.end
  %14 = load i32, ptr %j, align 4
  %15 = load i32, ptr %argc, align 4
  %cmp9 = icmp slt i32 %14, %15
  br i1 %cmp9, label %for.body, label %for.end

for.body:                                         ; preds = %for.cond
  br label %do.body

do.body:                                          ; preds = %for.body
  %16 = load i32, ptr %j, align 4
  %idxprom = sext i32 %16 to i64
  %arrayidx = getelementptr inbounds %struct.redisObject, ptr %vla, i64 %idxprom
  %refcount = getelementptr inbounds %struct.redisObject, ptr %arrayidx, i32 0, i32 1
  store i32 2147483646, ptr %refcount, align 4
  %17 = load i32, ptr %j, align 4
  %idxprom11 = sext i32 %17 to i64
  %arrayidx12 = getelementptr inbounds %struct.redisObject, ptr %vla, i64 %idxprom11
  %bf.load = load i32, ptr %arrayidx12, align 16
  %bf.clear = and i32 %bf.load, -16
  %bf.set = or i32 %bf.clear, 0
  store i32 %bf.set, ptr %arrayidx12, align 16
  %18 = load i32, ptr %j, align 4
  %idxprom13 = sext i32 %18 to i64
  %arrayidx14 = getelementptr inbounds %struct.redisObject, ptr %vla, i64 %idxprom13
  %bf.load15 = load i32, ptr %arrayidx14, align 16
  %bf.clear16 = and i32 %bf.load15, -241
  %bf.set17 = or i32 %bf.clear16, 0
  store i32 %bf.set17, ptr %arrayidx14, align 16
  %19 = load ptr, ptr %strings, align 8
  %20 = load i32, ptr %j, align 4
  %idxprom18 = sext i32 %20 to i64
  %arrayidx19 = getelementptr inbounds ptr, ptr %19, i64 %idxprom18
  %21 = load ptr, ptr %arrayidx19, align 8
  %22 = load i32, ptr %j, align 4
  %idxprom20 = sext i32 %22 to i64
  %arrayidx21 = getelementptr inbounds %struct.redisObject, ptr %vla, i64 %idxprom20
  %ptr = getelementptr inbounds %struct.redisObject, ptr %arrayidx21, i32 0, i32 2
  store ptr %21, ptr %ptr, align 8
  br label %do.cond

do.cond:                                          ; preds = %do.body
  br label %do.end

do.end:                                           ; preds = %do.cond
  %23 = load i32, ptr %j, align 4
  %idxprom22 = sext i32 %23 to i64
  %arrayidx23 = getelementptr inbounds %struct.redisObject, ptr %vla, i64 %idxprom22
  %24 = load i32, ptr %j, align 4
  %idxprom24 = sext i32 %24 to i64
  %arrayidx25 = getelementptr inbounds ptr, ptr %vla8, i64 %idxprom24
  store ptr %arrayidx23, ptr %arrayidx25, align 8
  br label %for.inc

for.inc:                                          ; preds = %do.end
  %25 = load i32, ptr %j, align 4
  %inc = add nsw i32 %25, 1
  store i32 %inc, ptr %j, align 4
  br label %for.cond, !llvm.loop !43

for.end:                                          ; preds = %for.cond
  %26 = load ptr, ptr %commands.addr, align 8
  %27 = load i32, ptr %argc, align 4
  %call26 = call ptr @lookupCommandLogic(ptr noundef %26, ptr noundef %vla8, i32 noundef %27, i32 noundef 1)
  store ptr %call26, ptr %cmd, align 8
  %28 = load ptr, ptr %strings, align 8
  %29 = load i32, ptr %argc, align 4
  call void @sdsfreesplitres(ptr noundef %28, i32 noundef %29)
  %30 = load ptr, ptr %cmd, align 8
  store ptr %30, ptr %retval, align 8
  %31 = load ptr, ptr %saved_stack, align 8
  call void @llvm.stackrestore.p0(ptr %31)
  br label %return

return:                                           ; preds = %for.end, %if.then4, %if.then
  %32 = load ptr, ptr %retval, align 8
  ret ptr %32
}