; Function Attrs: nounwind uwtable
define dso_local ptr @lookupCommandBySdsLogic(ptr noundef %commands, ptr noundef %s) local_unnamed_addr #0 {
entry:
  %argc = alloca i32, align 4
  %arrayidx.i = getelementptr inbounds i8, ptr %s, i64 -1
  %0 = load i8, ptr %arrayidx.i, align 1
  %conv.i = zext i8 %0 to i32
  %and.i = and i32 %conv.i, 7
  switch i32 %and.i, label %sdslen.exit [
    i32 0, label %sw.bb.i
    i32 1, label %sw.bb3.i
    i32 2, label %sw.bb5.i
    i32 3, label %sw.bb9.i
    i32 4, label %sw.bb13.i
  ]

sw.bb.i:                                          ; preds = %entry
  %shr.i = lshr i32 %conv.i, 3
  %conv2.i = zext nneg i32 %shr.i to i64
  br label %sdslen.exit

sw.bb3.i:                                         ; preds = %entry
  %add.ptr.i = getelementptr inbounds i8, ptr %s, i64 -3
  %1 = load i8, ptr %add.ptr.i, align 1
  %conv4.i = zext i8 %1 to i64
  br label %sdslen.exit

sw.bb5.i:                                         ; preds = %entry
  %add.ptr6.i = getelementptr inbounds i8, ptr %s, i64 -5
  %2 = load i16, ptr %add.ptr6.i, align 1
  %conv8.i = zext i16 %2 to i64
  br label %sdslen.exit

sw.bb9.i:                                         ; preds = %entry
  %add.ptr10.i = getelementptr inbounds i8, ptr %s, i64 -9
  %3 = load i32, ptr %add.ptr10.i, align 1
  %conv12.i = zext i32 %3 to i64
  br label %sdslen.exit

sw.bb13.i:                                        ; preds = %entry
  %add.ptr14.i = getelementptr inbounds i8, ptr %s, i64 -17
  %4 = load i64, ptr %add.ptr14.i, align 1
  br label %sdslen.exit

sdslen.exit:                                      ; preds = %entry, %sw.bb.i, %sw.bb3.i, %sw.bb5.i, %sw.bb9.i, %sw.bb13.i
  %retval.0.i = phi i64 [ %4, %sw.bb13.i ], [ %conv12.i, %sw.bb9.i ], [ %conv8.i, %sw.bb5.i ], [ %conv4.i, %sw.bb3.i ], [ %conv2.i, %sw.bb.i ], [ 0, %entry ]
  %call1 = call ptr @sdssplitlen(ptr noundef nonnull %s, i64 noundef %retval.0.i, ptr noundef nonnull @.str.165, i32 noundef 1, ptr noundef nonnull %argc) #38
  %cmp = icmp eq ptr %call1, null
  br i1 %cmp, label %return, label %if.end

if.end:                                           ; preds = %sdslen.exit
  %5 = load i32, ptr %argc, align 4
  %6 = add i32 %5, -3
  %or.cond = icmp ult i32 %6, -2
  br i1 %or.cond, label %if.then4, label %cond.end

if.then4:                                         ; preds = %if.end
  call void @sdsfreesplitres(ptr noundef nonnull %call1, i32 noundef %5) #38
  br label %return

cond.end:                                         ; preds = %if.end
  %7 = zext nneg i32 %5 to i64
  %8 = call ptr @llvm.stacksave.p0()
  %vla = alloca %struct.redisObject, i64 %7, align 16
  %9 = load i32, ptr %argc, align 4
  %10 = zext nneg i32 %9 to i64
  %vla8 = alloca ptr, i64 %10, align 16
  %cmp915 = icmp sgt i32 %9, 0
  call void @llvm.assume(i1 %cmp915)
  br label %do.body

do.body:                                          ; preds = %cond.end, %do.body
  %indvars.iv = phi i64 [ %indvars.iv.next, %do.body ], [ 0, %cond.end ]
  %arrayidx = getelementptr inbounds %struct.redisObject, ptr %vla, i64 %indvars.iv
  %refcount = getelementptr inbounds i8, ptr %arrayidx, i64 4
  store i32 2147483646, ptr %refcount, align 4
  %bf.load = load i32, ptr %arrayidx, align 16
  %bf.clear16 = and i32 %bf.load, -256
  store i32 %bf.clear16, ptr %arrayidx, align 16
  %arrayidx19 = getelementptr inbounds ptr, ptr %call1, i64 %indvars.iv
  %11 = load ptr, ptr %arrayidx19, align 8
  %ptr = getelementptr inbounds i8, ptr %arrayidx, i64 8
  store ptr %11, ptr %ptr, align 8
  %arrayidx25 = getelementptr inbounds ptr, ptr %vla8, i64 %indvars.iv
  store ptr %arrayidx, ptr %arrayidx25, align 8
  %indvars.iv.next = add nuw nsw i64 %indvars.iv, 1
  %exitcond.not = icmp eq i64 %indvars.iv.next, %10
  br i1 %exitcond.not, label %for.end.loopexit, label %do.body, !llvm.loop !42

for.end.loopexit:                                 ; preds = %do.body
  %.pre = load ptr, ptr %vla8, align 16
  %ptr.i = getelementptr inbounds i8, ptr %.pre, i64 8
  %12 = load ptr, ptr %ptr.i, align 8
  %call.i = call ptr @dictFetchValue(ptr noundef %commands, ptr noundef %12) #38
  %tobool.not.i = icmp eq ptr %call.i, null
  br i1 %tobool.not.i, label %land.end.thread.i, label %land.end.i

land.end.thread.i:                                ; preds = %for.end.loopexit
  %cmp10.i = icmp ne i32 %9, 1
  br label %if.then.i

land.end.i:                                       ; preds = %for.end.loopexit
  %subcommands_dict.i = getelementptr inbounds i8, ptr %call.i, i64 288
  %13 = load ptr, ptr %subcommands_dict.i, align 8
  %tobool1.i = icmp ne ptr %13, null
  %cmp.i = icmp ne i32 %9, 1
  %or.cond.i = select i1 %cmp.i, i1 %tobool1.i, i1 false
  br i1 %or.cond.i, label %if.else.i, label %if.then.i

if.then.i:                                        ; preds = %land.end.i, %land.end.thread.i
  %cmp12.i = phi i1 [ %cmp10.i, %land.end.thread.i ], [ %cmp.i, %land.end.i ]
  %.call.i = select i1 %cmp12.i, ptr null, ptr %call.i
  br label %lookupCommandLogic.exit

if.else.i:                                        ; preds = %land.end.i
  %cmp8.i.not = icmp eq i32 %9, 2
  br i1 %cmp8.i.not, label %if.end10.i, label %lookupCommandLogic.exit

if.end10.i:                                       ; preds = %if.else.i
  %arrayidx11.i = getelementptr inbounds i8, ptr %vla8, i64 8
  %14 = load ptr, ptr %arrayidx11.i, align 8
  %ptr12.i = getelementptr inbounds i8, ptr %14, i64 8
  %15 = load ptr, ptr %ptr12.i, align 8
  %call.i.i = call ptr @dictFetchValue(ptr noundef nonnull %13, ptr noundef %15) #38
  br label %lookupCommandLogic.exit

lookupCommandLogic.exit:                          ; preds = %if.then.i, %if.else.i, %if.end10.i
  %retval.0.i14 = phi ptr [ %call.i.i, %if.end10.i ], [ %.call.i, %if.then.i ], [ null, %if.else.i ]
  %16 = load i32, ptr %argc, align 4
  call void @sdsfreesplitres(ptr noundef nonnull %call1, i32 noundef %16) #38
  call void @llvm.stackrestore.p0(ptr %8)
  br label %return

return:                                           ; preds = %sdslen.exit, %lookupCommandLogic.exit, %if.then4
  %retval.0 = phi ptr [ null, %if.then4 ], [ %retval.0.i14, %lookupCommandLogic.exit ], [ null, %sdslen.exit ]
  ret ptr %retval.0
}